target datalayout = "e-m:e-p270:32:32-p271:32:32-p272:64:64-i64:64-i128:128-f80:128-n8:16:32:64-S128"
target triple = "x86_64-pc-linux-gnu"

%struct.__loadu_si128 = type { <2 x i64> }
%struct.__storeu_si128 = type { <2 x i64> }

; Function Attrs: alwaysinline nounwind uwtable
define internal <2 x i64> @_mm_set_epi32(i32 noundef %0, i32 noundef %1, i32 noundef %2, i32 noundef %3) #3 {
  %5 = alloca i32, align 4
  %6 = alloca i32, align 4
  %7 = alloca i32, align 4
  %8 = alloca i32, align 4
  %9 = alloca <4 x i32>, align 16
  store i32 %0, ptr %5, align 4, !tbaa !9
  store i32 %1, ptr %6, align 4, !tbaa !9
  store i32 %2, ptr %7, align 4, !tbaa !9
  store i32 %3, ptr %8, align 4, !tbaa !9
  %10 = load i32, ptr %8, align 4, !tbaa !9
  %11 = insertelement <4 x i32> poison, i32 %10, i32 0
  %12 = load i32, ptr %7, align 4, !tbaa !9
  %13 = insertelement <4 x i32> %11, i32 %12, i32 1
  %14 = load i32, ptr %6, align 4, !tbaa !9
  %15 = insertelement <4 x i32> %13, i32 %14, i32 2
  %16 = load i32, ptr %5, align 4, !tbaa !9
  %17 = insertelement <4 x i32> %15, i32 %16, i32 3
  store <4 x i32> %17, ptr %9, align 16, !tbaa !11
  %18 = load <4 x i32>, ptr %9, align 16, !tbaa !11
  %19 = bitcast <4 x i32> %18 to <2 x i64>
  ret <2 x i64> %19
}

; Function Attrs: alwaysinline nounwind uwtable
define internal void @_mm_storeu_si128(ptr noundef %0, <2 x i64> noundef %1) #3 {
  %3 = alloca ptr, align 8
  %4 = alloca <2 x i64>, align 16
  store ptr %0, ptr %3, align 8, !tbaa !3
  store <2 x i64> %1, ptr %4, align 16, !tbaa !11
  %5 = load <2 x i64>, ptr %4, align 16, !tbaa !11
  %6 = load ptr, ptr %3, align 8, !tbaa !3
  %7 = getelementptr inbounds nuw %struct.__storeu_si128, ptr %6, i32 0, i32 0
  store <2 x i64> %5, ptr %7, align 1, !tbaa !11
  ret void
}

; Function Attrs: alwaysinline nounwind uwtable
define internal <2 x i64> @_mm_packs_epi32(<2 x i64> noundef %0, <2 x i64> noundef %1) #3 {
  %3 = alloca <2 x i64>, align 16
  %4 = alloca <2 x i64>, align 16
  store <2 x i64> %0, ptr %3, align 16, !tbaa !11
  store <2 x i64> %1, ptr %4, align 16, !tbaa !11
  %5 = load <2 x i64>, ptr %3, align 16, !tbaa !11
  %6 = bitcast <2 x i64> %5 to <4 x i32>
  %7 = load <2 x i64>, ptr %4, align 16, !tbaa !11
  %8 = bitcast <2 x i64> %7 to <4 x i32>
  %9 = call <8 x i16> @llvm.x86.sse2.packssdw.128(<4 x i32> %6, <4 x i32> %8)
  %10 = bitcast <8 x i16> %9 to <2 x i64>
  ret <2 x i64> %10
}

; Function Attrs: alwaysinline nounwind uwtable
define internal <2 x i64> @_mm_srli_epi32(<2 x i64> noundef %0, i32 noundef %1) #3 {
  %3 = alloca <2 x i64>, align 16
  %4 = alloca i32, align 4
  store <2 x i64> %0, ptr %3, align 16, !tbaa !11
  store i32 %1, ptr %4, align 4, !tbaa !9
  %5 = load <2 x i64>, ptr %3, align 16, !tbaa !11
  %6 = bitcast <2 x i64> %5 to <4 x i32>
  %7 = load i32, ptr %4, align 4, !tbaa !9
  %8 = call <4 x i32> @llvm.x86.sse2.psrli.d(<4 x i32> %6, i32 %7)
  %9 = bitcast <4 x i32> %8 to <2 x i64>
  ret <2 x i64> %9
}

; Function Attrs: alwaysinline nounwind uwtable
define internal <2 x i64> @_mm_sub_epi8(<2 x i64> noundef %0, <2 x i64> noundef %1) #3 {
  %3 = alloca <2 x i64>, align 16
  %4 = alloca <2 x i64>, align 16
  store <2 x i64> %0, ptr %3, align 16, !tbaa !11
  store <2 x i64> %1, ptr %4, align 16, !tbaa !11
  %5 = load <2 x i64>, ptr %3, align 16, !tbaa !11
  %6 = bitcast <2 x i64> %5 to <16 x i8>
  %7 = load <2 x i64>, ptr %4, align 16, !tbaa !11
  %8 = bitcast <2 x i64> %7 to <16 x i8>
  %9 = sub <16 x i8> %6, %8
  %10 = bitcast <16 x i8> %9 to <2 x i64>
  ret <2 x i64> %10
}

; Function Attrs: alwaysinline nounwind uwtable
define internal <2 x i64> @_mm_mulhi_epi16(<2 x i64> noundef %0, <2 x i64> noundef %1) #3 {
  %3 = alloca <2 x i64>, align 16
  %4 = alloca <2 x i64>, align 16
  store <2 x i64> %0, ptr %3, align 16, !tbaa !11
  store <2 x i64> %1, ptr %4, align 16, !tbaa !11
  %5 = load <2 x i64>, ptr %3, align 16, !tbaa !11
  %6 = bitcast <2 x i64> %5 to <8 x i16>
  %7 = load <2 x i64>, ptr %4, align 16, !tbaa !11
  %8 = bitcast <2 x i64> %7 to <8 x i16>
  %9 = call <8 x i16> @llvm.x86.sse2.pmulh.w(<8 x i16> %6, <8 x i16> %8)
  %10 = bitcast <8 x i16> %9 to <2 x i64>
  ret <2 x i64> %10
}

; Function Attrs: alwaysinline nounwind uwtable
define internal <2 x i64> @_mm_and_si128(<2 x i64> noundef %0, <2 x i64> noundef %1) #3 {
  %3 = alloca <2 x i64>, align 16
  %4 = alloca <2 x i64>, align 16
  store <2 x i64> %0, ptr %3, align 16, !tbaa !11
  store <2 x i64> %1, ptr %4, align 16, !tbaa !11
  %5 = load <2 x i64>, ptr %3, align 16, !tbaa !11
  %6 = load <2 x i64>, ptr %4, align 16, !tbaa !11
  %7 = and <2 x i64> %5, %6
  ret <2 x i64> %7
}

; Function Attrs: alwaysinline nounwind uwtable
define internal <2 x i64> @_mm_slli_epi16(<2 x i64> noundef %0, i32 noundef %1) #3 {
  %3 = alloca <2 x i64>, align 16
  %4 = alloca i32, align 4
  store <2 x i64> %0, ptr %3, align 16, !tbaa !11
  store i32 %1, ptr %4, align 4, !tbaa !9
  %5 = load <2 x i64>, ptr %3, align 16, !tbaa !11
  %6 = bitcast <2 x i64> %5 to <8 x i16>
  %7 = load i32, ptr %4, align 4, !tbaa !9
  %8 = call <8 x i16> @llvm.x86.sse2.pslli.w(<8 x i16> %6, i32 %7)
  %9 = bitcast <8 x i16> %8 to <2 x i64>
  ret <2 x i64> %9
}

; Function Attrs: alwaysinline nounwind uwtable
define internal <2 x i64> @_mm_loadu_si128(ptr noundef %0) #3 {
  %2 = alloca ptr, align 8
  store ptr %0, ptr %2, align 8, !tbaa !3
  %3 = load ptr, ptr %2, align 8, !tbaa !3
  %4 = getelementptr inbounds nuw %struct.__loadu_si128, ptr %3, i32 0, i32 0
  %5 = load <2 x i64>, ptr %4, align 1, !tbaa !11
  ret <2 x i64> %5
}

; Function Attrs: alwaysinline nounwind uwtable
define internal <2 x i64> @_mm_set1_epi32(i32 noundef %0) #3 {
  %2 = alloca i32, align 4
  store i32 %0, ptr %2, align 4, !tbaa !9
  %3 = load i32, ptr %2, align 4, !tbaa !9
  %4 = load i32, ptr %2, align 4, !tbaa !9
  %5 = load i32, ptr %2, align 4, !tbaa !9
  %6 = load i32, ptr %2, align 4, !tbaa !9
  %7 = call <2 x i64> @_mm_set_epi32(i32 noundef %3, i32 noundef %4, i32 noundef %5, i32 noundef %6)
  ret <2 x i64> %7
}

; Function Attrs: nounwind uwtable
define internal void @CollectColorBlueTransforms_SSE2(ptr noalias noundef %0, i32 noundef %1, i32 noundef %2, i32 noundef %3, i32 noundef %4, i32 noundef %5, ptr noundef %6) #1 {
  %8 = alloca ptr, align 8
  %9 = alloca i32, align 4
  %10 = alloca i32, align 4
  %11 = alloca i32, align 4
  %12 = alloca i32, align 4
  %13 = alloca i32, align 4
  %14 = alloca ptr, align 8
  %15 = alloca <2 x i64>, align 16
  %16 = alloca <2 x i64>, align 16
  %17 = alloca <2 x i64>, align 16
  %18 = alloca <2 x i64>, align 16
  %19 = alloca i32, align 4
  %20 = alloca ptr, align 8
  %21 = alloca i32, align 4
  %22 = alloca i32, align 4
  %23 = alloca [8 x i16], align 16
  %24 = alloca <2 x i64>, align 16
  %25 = alloca <2 x i64>, align 16
  %26 = alloca <2 x i64>, align 16
  %27 = alloca <2 x i64>, align 16
  %28 = alloca <2 x i64>, align 16
  %29 = alloca <2 x i64>, align 16
  %30 = alloca <2 x i64>, align 16
  %31 = alloca <2 x i64>, align 16
  %32 = alloca <2 x i64>, align 16
  %33 = alloca <2 x i64>, align 16
  %34 = alloca <2 x i64>, align 16
  %35 = alloca <2 x i64>, align 16
  %36 = alloca <2 x i64>, align 16
  %37 = alloca <2 x i64>, align 16
  %38 = alloca <2 x i64>, align 16
  %39 = alloca <2 x i64>, align 16
  %40 = alloca <2 x i64>, align 16
  %41 = alloca <2 x i64>, align 16
  %42 = alloca <2 x i64>, align 16
  %43 = alloca i32, align 4
  store ptr %0, ptr %8, align 8, !tbaa !7
  store i32 %1, ptr %9, align 4, !tbaa !9
  store i32 %2, ptr %10, align 4, !tbaa !9
  store i32 %3, ptr %11, align 4, !tbaa !9
  store i32 %4, ptr %12, align 4, !tbaa !9
  store i32 %5, ptr %13, align 4, !tbaa !9
  store ptr %6, ptr %14, align 8, !tbaa !7
  call void @llvm.lifetime.start.p0(i64 16, ptr %15) #9
  %44 = load i32, ptr %13, align 4, !tbaa !9
  %45 = trunc i32 %44 to i16
  %46 = zext i16 %45 to i32
  %47 = shl i32 %46, 8
  %48 = trunc i32 %47 to i16
  %49 = sext i16 %48 to i32
  %50 = ashr i32 %49, 5
  %51 = shl i32 %50, 16
  %52 = or i32 %51, 0
  %53 = call <2 x i64> @_mm_set1_epi32(i32 noundef %52)
  store <2 x i64> %53, ptr %15, align 16, !tbaa !11
  call void @llvm.lifetime.start.p0(i64 16, ptr %16) #9
  %54 = load i32, ptr %12, align 4, !tbaa !9
  %55 = trunc i32 %54 to i16
  %56 = zext i16 %55 to i32
  %57 = shl i32 %56, 8
  %58 = trunc i32 %57 to i16
  %59 = sext i16 %58 to i32
  %60 = ashr i32 %59, 5
  %61 = and i32 %60, 65535
  %62 = or i32 0, %61
  %63 = call <2 x i64> @_mm_set1_epi32(i32 noundef %62)
  store <2 x i64> %63, ptr %16, align 16, !tbaa !11
  call void @llvm.lifetime.start.p0(i64 16, ptr %17) #9
  %64 = call <2 x i64> @_mm_set1_epi32(i32 noundef 65280)
  store <2 x i64> %64, ptr %17, align 16, !tbaa !11
  call void @llvm.lifetime.start.p0(i64 16, ptr %18) #9
  %65 = call <2 x i64> @_mm_set1_epi32(i32 noundef 255)
  store <2 x i64> %65, ptr %18, align 16, !tbaa !11
  call void @llvm.lifetime.start.p0(i64 4, ptr %19) #9
  store i32 0, ptr %19, align 4, !tbaa !9
  br label %66

66:                                               ; preds = %165, %7
  %67 = load i32, ptr %19, align 4, !tbaa !9
  %68 = load i32, ptr %11, align 4, !tbaa !9
  %69 = icmp slt i32 %67, %68
  br i1 %69, label %70, label %168

70:                                               ; preds = %66
  call void @llvm.lifetime.start.p0(i64 8, ptr %20) #9
  %71 = load ptr, ptr %8, align 8, !tbaa !7
  %72 = load i32, ptr %19, align 4, !tbaa !9
  %73 = load i32, ptr %9, align 4, !tbaa !9
  %74 = mul nsw i32 %72, %73
  %75 = sext i32 %74 to i64
  %76 = getelementptr inbounds i32, ptr %71, i64 %75
  store ptr %76, ptr %20, align 8, !tbaa !7
  call void @llvm.lifetime.start.p0(i64 4, ptr %21) #9
  call void @llvm.lifetime.start.p0(i64 4, ptr %22) #9
  store i32 0, ptr %22, align 4, !tbaa !9
  br label %77

77:                                               ; preds = %161, %70
  %78 = load i32, ptr %22, align 4, !tbaa !9
  %79 = add nsw i32 %78, 8
  %80 = load i32, ptr %10, align 4, !tbaa !9
  %81 = icmp sle i32 %79, %80
  br i1 %81, label %82, label %164

82:                                               ; preds = %77
  call void @llvm.lifetime.start.p0(i64 16, ptr %23) #9
  call void @llvm.lifetime.start.p0(i64 16, ptr %24) #9
  %83 = load ptr, ptr %20, align 8, !tbaa !7
  %84 = load i32, ptr %22, align 4, !tbaa !9
  %85 = add nsw i32 %84, 0
  %86 = sext i32 %85 to i64
  %87 = getelementptr inbounds i32, ptr %83, i64 %86
  %88 = call <2 x i64> @_mm_loadu_si128(ptr noundef %87)
  store <2 x i64> %88, ptr %24, align 16, !tbaa !11
  call void @llvm.lifetime.start.p0(i64 16, ptr %25) #9
  %89 = load ptr, ptr %20, align 8, !tbaa !7
  %90 = load i32, ptr %22, align 4, !tbaa !9
  %91 = add nsw i32 %90, 4
  %92 = sext i32 %91 to i64
  %93 = getelementptr inbounds i32, ptr %89, i64 %92
  %94 = call <2 x i64> @_mm_loadu_si128(ptr noundef %93)
  store <2 x i64> %94, ptr %25, align 16, !tbaa !11
  call void @llvm.lifetime.start.p0(i64 16, ptr %26) #9
  %95 = load <2 x i64>, ptr %24, align 16, !tbaa !11
  %96 = call <2 x i64> @_mm_slli_epi16(<2 x i64> noundef %95, i32 noundef 8)
  store <2 x i64> %96, ptr %26, align 16, !tbaa !11
  call void @llvm.lifetime.start.p0(i64 16, ptr %27) #9
  %97 = load <2 x i64>, ptr %25, align 16, !tbaa !11
  %98 = call <2 x i64> @_mm_slli_epi16(<2 x i64> noundef %97, i32 noundef 8)
  store <2 x i64> %98, ptr %27, align 16, !tbaa !11
  call void @llvm.lifetime.start.p0(i64 16, ptr %28) #9
  %99 = load <2 x i64>, ptr %24, align 16, !tbaa !11
  %100 = load <2 x i64>, ptr %17, align 16, !tbaa !11
  %101 = call <2 x i64> @_mm_and_si128(<2 x i64> noundef %99, <2 x i64> noundef %100)
  store <2 x i64> %101, ptr %28, align 16, !tbaa !11
  call void @llvm.lifetime.start.p0(i64 16, ptr %29) #9
  %102 = load <2 x i64>, ptr %25, align 16, !tbaa !11
  %103 = load <2 x i64>, ptr %17, align 16, !tbaa !11
  %104 = call <2 x i64> @_mm_and_si128(<2 x i64> noundef %102, <2 x i64> noundef %103)
  store <2 x i64> %104, ptr %29, align 16, !tbaa !11
  call void @llvm.lifetime.start.p0(i64 16, ptr %30) #9
  %105 = load <2 x i64>, ptr %26, align 16, !tbaa !11
  %106 = load <2 x i64>, ptr %15, align 16, !tbaa !11
  %107 = call <2 x i64> @_mm_mulhi_epi16(<2 x i64> noundef %105, <2 x i64> noundef %106)
  store <2 x i64> %107, ptr %30, align 16, !tbaa !11
  call void @llvm.lifetime.start.p0(i64 16, ptr %31) #9
  %108 = load <2 x i64>, ptr %27, align 16, !tbaa !11
  %109 = load <2 x i64>, ptr %15, align 16, !tbaa !11
  %110 = call <2 x i64> @_mm_mulhi_epi16(<2 x i64> noundef %108, <2 x i64> noundef %109)
  store <2 x i64> %110, ptr %31, align 16, !tbaa !11
  call void @llvm.lifetime.start.p0(i64 16, ptr %32) #9
  %111 = load <2 x i64>, ptr %28, align 16, !tbaa !11
  %112 = load <2 x i64>, ptr %16, align 16, !tbaa !11
  %113 = call <2 x i64> @_mm_mulhi_epi16(<2 x i64> noundef %111, <2 x i64> noundef %112)
  store <2 x i64> %113, ptr %32, align 16, !tbaa !11
  call void @llvm.lifetime.start.p0(i64 16, ptr %33) #9
  %114 = load <2 x i64>, ptr %29, align 16, !tbaa !11
  %115 = load <2 x i64>, ptr %16, align 16, !tbaa !11
  %116 = call <2 x i64> @_mm_mulhi_epi16(<2 x i64> noundef %114, <2 x i64> noundef %115)
  store <2 x i64> %116, ptr %33, align 16, !tbaa !11
  call void @llvm.lifetime.start.p0(i64 16, ptr %34) #9
  %117 = load <2 x i64>, ptr %24, align 16, !tbaa !11
  %118 = load <2 x i64>, ptr %32, align 16, !tbaa !11
  %119 = call <2 x i64> @_mm_sub_epi8(<2 x i64> noundef %117, <2 x i64> noundef %118)
  store <2 x i64> %119, ptr %34, align 16, !tbaa !11
  call void @llvm.lifetime.start.p0(i64 16, ptr %35) #9
  %120 = load <2 x i64>, ptr %25, align 16, !tbaa !11
  %121 = load <2 x i64>, ptr %33, align 16, !tbaa !11
  %122 = call <2 x i64> @_mm_sub_epi8(<2 x i64> noundef %120, <2 x i64> noundef %121)
  store <2 x i64> %122, ptr %35, align 16, !tbaa !11
  call void @llvm.lifetime.start.p0(i64 16, ptr %36) #9
  %123 = load <2 x i64>, ptr %30, align 16, !tbaa !11
  %124 = call <2 x i64> @_mm_srli_epi32(<2 x i64> noundef %123, i32 noundef 16)
  store <2 x i64> %124, ptr %36, align 16, !tbaa !11
  call void @llvm.lifetime.start.p0(i64 16, ptr %37) #9
  %125 = load <2 x i64>, ptr %31, align 16, !tbaa !11
  %126 = call <2 x i64> @_mm_srli_epi32(<2 x i64> noundef %125, i32 noundef 16)
  store <2 x i64> %126, ptr %37, align 16, !tbaa !11
  call void @llvm.lifetime.start.p0(i64 16, ptr %38) #9
  %127 = load <2 x i64>, ptr %34, align 16, !tbaa !11
  %128 = load <2 x i64>, ptr %36, align 16, !tbaa !11
  %129 = call <2 x i64> @_mm_sub_epi8(<2 x i64> noundef %127, <2 x i64> noundef %128)
  store <2 x i64> %129, ptr %38, align 16, !tbaa !11
  call void @llvm.lifetime.start.p0(i64 16, ptr %39) #9
  %130 = load <2 x i64>, ptr %35, align 16, !tbaa !11
  %131 = load <2 x i64>, ptr %37, align 16, !tbaa !11
  %132 = call <2 x i64> @_mm_sub_epi8(<2 x i64> noundef %130, <2 x i64> noundef %131)
  store <2 x i64> %132, ptr %39, align 16, !tbaa !11
  call void @llvm.lifetime.start.p0(i64 16, ptr %40) #9
  %133 = load <2 x i64>, ptr %38, align 16, !tbaa !11
  %134 = load <2 x i64>, ptr %18, align 16, !tbaa !11
  %135 = call <2 x i64> @_mm_and_si128(<2 x i64> noundef %133, <2 x i64> noundef %134)
  store <2 x i64> %135, ptr %40, align 16, !tbaa !11
  call void @llvm.lifetime.start.p0(i64 16, ptr %41) #9
  %136 = load <2 x i64>, ptr %39, align 16, !tbaa !11
  %137 = load <2 x i64>, ptr %18, align 16, !tbaa !11
  %138 = call <2 x i64> @_mm_and_si128(<2 x i64> noundef %136, <2 x i64> noundef %137)
  store <2 x i64> %138, ptr %41, align 16, !tbaa !11
  call void @llvm.lifetime.start.p0(i64 16, ptr %42) #9
  %139 = load <2 x i64>, ptr %40, align 16, !tbaa !11
  %140 = load <2 x i64>, ptr %41, align 16, !tbaa !11
  %141 = call <2 x i64> @_mm_packs_epi32(<2 x i64> noundef %139, <2 x i64> noundef %140)
  store <2 x i64> %141, ptr %42, align 16, !tbaa !11
  %142 = getelementptr inbounds [8 x i16], ptr %23, i64 0, i64 0
  %143 = load <2 x i64>, ptr %42, align 16, !tbaa !11
  call void @_mm_storeu_si128(ptr noundef %142, <2 x i64> noundef %143)
  store i32 0, ptr %21, align 4, !tbaa !9
  br label %144

144:                                              ; preds = %157, %82
  %145 = load i32, ptr %21, align 4, !tbaa !9
  %146 = icmp slt i32 %145, 8
  br i1 %146, label %147, label %160

147:                                              ; preds = %144
  %148 = load ptr, ptr %14, align 8, !tbaa !7
  %149 = load i32, ptr %21, align 4, !tbaa !9
  %150 = sext i32 %149 to i64
  %151 = getelementptr inbounds [8 x i16], ptr %23, i64 0, i64 %150
  %152 = load i16, ptr %151, align 2, !tbaa !19
  %153 = zext i16 %152 to i64
  %154 = getelementptr inbounds nuw i32, ptr %148, i64 %153
  %155 = load i32, ptr %154, align 4, !tbaa !9
  %156 = add i32 %155, 1
  store i32 %156, ptr %154, align 4, !tbaa !9
  br label %157

157:                                              ; preds = %147
  %158 = load i32, ptr %21, align 4, !tbaa !9
  %159 = add nsw i32 %158, 1
  store i32 %159, ptr %21, align 4, !tbaa !9
  br label %144, !llvm.loop !21

160:                                              ; preds = %144
  call void @llvm.lifetime.end.p0(i64 16, ptr %42) #9
  call void @llvm.lifetime.end.p0(i64 16, ptr %41) #9
  call void @llvm.lifetime.end.p0(i64 16, ptr %40) #9
  call void @llvm.lifetime.end.p0(i64 16, ptr %39) #9
  call void @llvm.lifetime.end.p0(i64 16, ptr %38) #9
  call void @llvm.lifetime.end.p0(i64 16, ptr %37) #9
  call void @llvm.lifetime.end.p0(i64 16, ptr %36) #9
  call void @llvm.lifetime.end.p0(i64 16, ptr %35) #9
  call void @llvm.lifetime.end.p0(i64 16, ptr %34) #9
  call void @llvm.lifetime.end.p0(i64 16, ptr %33) #9
  call void @llvm.lifetime.end.p0(i64 16, ptr %32) #9
  call void @llvm.lifetime.end.p0(i64 16, ptr %31) #9
  call void @llvm.lifetime.end.p0(i64 16, ptr %30) #9
  call void @llvm.lifetime.end.p0(i64 16, ptr %29) #9
  call void @llvm.lifetime.end.p0(i64 16, ptr %28) #9
  call void @llvm.lifetime.end.p0(i64 16, ptr %27) #9
  call void @llvm.lifetime.end.p0(i64 16, ptr %26) #9
  call void @llvm.lifetime.end.p0(i64 16, ptr %25) #9
  call void @llvm.lifetime.end.p0(i64 16, ptr %24) #9
  call void @llvm.lifetime.end.p0(i64 16, ptr %23) #9
  br label %161

161:                                              ; preds = %160
  %162 = load i32, ptr %22, align 4, !tbaa !9
  %163 = add nsw i32 %162, 8
  store i32 %163, ptr %22, align 4, !tbaa !9
  br label %77, !llvm.loop !22

164:                                              ; preds = %77
  call void @llvm.lifetime.end.p0(i64 4, ptr %22) #9
  call void @llvm.lifetime.end.p0(i64 4, ptr %21) #9
  call void @llvm.lifetime.end.p0(i64 8, ptr %20) #9
  br label %165

165:                                              ; preds = %164
  %166 = load i32, ptr %19, align 4, !tbaa !9
  %167 = add nsw i32 %166, 1
  store i32 %167, ptr %19, align 4, !tbaa !9
  br label %66, !llvm.loop !23

168:                                              ; preds = %66
  call void @llvm.lifetime.start.p0(i64 4, ptr %43) #9
  %169 = load i32, ptr %10, align 4, !tbaa !9
  %170 = and i32 %169, 7
  store i32 %170, ptr %43, align 4, !tbaa !9
  %171 = load i32, ptr %43, align 4, !tbaa !9
  %172 = icmp sgt i32 %171, 0
  br i1 %172, label %173, label %188

173:                                              ; preds = %168
  %174 = load ptr, ptr %8, align 8, !tbaa !7
  %175 = load i32, ptr %10, align 4, !tbaa !9
  %176 = sext i32 %175 to i64
  %177 = getelementptr inbounds i32, ptr %174, i64 %176
  %178 = load i32, ptr %43, align 4, !tbaa !9
  %179 = sext i32 %178 to i64
  %180 = sub i64 0, %179
  %181 = getelementptr inbounds i32, ptr %177, i64 %180
  %182 = load i32, ptr %9, align 4, !tbaa !9
  %183 = load i32, ptr %43, align 4, !tbaa !9
  %184 = load i32, ptr %11, align 4, !tbaa !9
  %185 = load i32, ptr %12, align 4, !tbaa !9
  %186 = load i32, ptr %13, align 4, !tbaa !9
  %187 = load ptr, ptr %14, align 8, !tbaa !7
  call void @VP8LCollectColorBlueTransforms_C(ptr noundef %181, i32 noundef %182, i32 noundef %183, i32 noundef %184, i32 noundef %185, i32 noundef %186, ptr noundef %187)
  br label %188

188:                                              ; preds = %173, %168
  call void @llvm.lifetime.end.p0(i64 4, ptr %43) #9
  call void @llvm.lifetime.end.p0(i64 4, ptr %19) #9
  call void @llvm.lifetime.end.p0(i64 16, ptr %18) #9
  call void @llvm.lifetime.end.p0(i64 16, ptr %17) #9
  call void @llvm.lifetime.end.p0(i64 16, ptr %16) #9
  call void @llvm.lifetime.end.p0(i64 16, ptr %15) #9
  ret void
}