; Function Attrs: nounwind uwtable
define internal void @CollectColorBlueTransforms_SSE2(ptr noalias noundef %0, i32 noundef %1, i32 noundef %2, i32 noundef %3, i32 noundef %4, i32 noundef %5, ptr noundef %6) #1 {
  %8 = alloca [8 x i16], align 16
  %9 = icmp sgt i32 %3, 0
  br i1 %9, label %.lr.ph77, label %._crit_edge78

.lr.ph77:                                         ; preds = %7
  %.tr65 = trunc i32 %4 to i16
  %10 = shl i16 %.tr65, 8
  %11 = ashr exact i16 %10, 5
  %12 = zext i16 %11 to i32
  %13 = insertelement <4 x i32> poison, i32 %12, i64 0
  %14 = shufflevector <4 x i32> %13, <4 x i32> poison, <4 x i32> zeroinitializer
  %.tr = trunc i32 %5 to i16
  %15 = shl i16 %.tr, 8
  %16 = ashr exact i16 %15, 5
  %17 = sext i16 %16 to i32
  %18 = shl nsw i32 %17, 16
  %19 = insertelement <4 x i32> poison, i32 %18, i64 0
  %20 = shufflevector <4 x i32> %19, <4 x i32> poison, <4 x i32> zeroinitializer
  %.not6673 = icmp slt i32 %2, 8
  %21 = bitcast <4 x i32> %20 to <8 x i16>
  %22 = bitcast <4 x i32> %14 to <8 x i16>
  br i1 %.not6673, label %._crit_edge78, label %.lr.ph.preheader

.lr.ph.preheader:                                 ; preds = %.lr.ph77
  %23 = zext nneg i32 %2 to i64
  %24 = sext i32 %1 to i64
  %wide.trip.count = zext nneg i32 %3 to i64
  br label %.lr.ph

.lr.ph:                                           ; preds = %.lr.ph.preheader, %._crit_edge
  %indvars.iv88 = phi i64 [ 0, %.lr.ph.preheader ], [ %indvars.iv.next89, %._crit_edge ]
  %25 = mul nsw i64 %indvars.iv88, %24
  %26 = getelementptr inbounds i32, ptr %0, i64 %25
  br label %27

27:                                               ; preds = %.lr.ph, %69
  %indvars.iv83 = phi i64 [ 0, %.lr.ph ], [ %indvars.iv.next84, %69 ]
  %indvars.iv81 = phi i64 [ 8, %.lr.ph ], [ %indvars.iv.next82, %69 ]
  call void @llvm.lifetime.start.p0(i64 16, ptr nonnull %8) #8
  %28 = getelementptr inbounds nuw i32, ptr %26, i64 %indvars.iv83
  %29 = load <2 x i64>, ptr %28, align 1, !tbaa !7
  %30 = or disjoint i64 %indvars.iv83, 4
  %31 = getelementptr inbounds nuw i32, ptr %26, i64 %30
  %32 = load <2 x i64>, ptr %31, align 1, !tbaa !7
  %33 = bitcast <2 x i64> %29 to <8 x i16>
  %34 = shl <8 x i16> %33, splat (i16 8)
  %35 = bitcast <2 x i64> %32 to <8 x i16>
  %36 = shl <8 x i16> %35, splat (i16 8)
  %37 = tail call <8 x i16> @llvm.x86.sse2.pmulh.w(<8 x i16> %34, <8 x i16> %21)
  %38 = tail call <8 x i16> @llvm.x86.sse2.pmulh.w(<8 x i16> %36, <8 x i16> %21)
  %39 = and <8 x i16> %33, <i16 -256, i16 0, i16 -256, i16 0, i16 -256, i16 0, i16 -256, i16 0>
  %40 = tail call <8 x i16> @llvm.x86.sse2.pmulh.w(<8 x i16> %39, <8 x i16> %22)
  %41 = and <8 x i16> %35, <i16 -256, i16 0, i16 -256, i16 0, i16 -256, i16 0, i16 -256, i16 0>
  %42 = tail call <8 x i16> @llvm.x86.sse2.pmulh.w(<8 x i16> %41, <8 x i16> %22)
  %43 = bitcast <2 x i64> %29 to <16 x i8>
  %44 = bitcast <8 x i16> %40 to <16 x i8>
  %45 = bitcast <2 x i64> %32 to <16 x i8>
  %46 = bitcast <8 x i16> %42 to <16 x i8>
  %47 = bitcast <8 x i16> %37 to <4 x i32>
  %48 = lshr <4 x i32> %47, splat (i32 16)
  %49 = bitcast <8 x i16> %38 to <4 x i32>
  %50 = lshr <4 x i32> %49, splat (i32 16)
  %51 = bitcast <4 x i32> %48 to <16 x i8>
  %52 = add <16 x i8> %51, %44
  %53 = sub <16 x i8> %43, %52
  %54 = bitcast <4 x i32> %50 to <16 x i8>
  %55 = add <16 x i8> %54, %46
  %56 = sub <16 x i8> %45, %55
  %57 = bitcast <16 x i8> %53 to <4 x i32>
  %58 = and <4 x i32> %57, splat (i32 255)
  %59 = bitcast <16 x i8> %56 to <4 x i32>
  %60 = and <4 x i32> %59, splat (i32 255)
  %61 = tail call <8 x i16> @llvm.x86.sse2.packssdw.128(<4 x i32> %58, <4 x i32> %60)
  store <8 x i16> %61, ptr %8, align 16, !tbaa !7
  br label %62

62:                                               ; preds = %27, %62
  %indvars.iv = phi i64 [ 0, %27 ], [ %indvars.iv.next, %62 ]
  %63 = getelementptr inbounds nuw [8 x i16], ptr %8, i64 0, i64 %indvars.iv
  %64 = load i16, ptr %63, align 2, !tbaa !15
  %65 = zext i16 %64 to i64
  %66 = getelementptr inbounds nuw i32, ptr %6, i64 %65
  %67 = load i32, ptr %66, align 4, !tbaa !17
  %68 = add i32 %67, 1
  store i32 %68, ptr %66, align 4, !tbaa !17
  %indvars.iv.next = add nuw nsw i64 %indvars.iv, 1
  %exitcond.not = icmp eq i64 %indvars.iv.next, 8
  br i1 %exitcond.not, label %69, label %62, !llvm.loop !19

69:                                               ; preds = %62
  call void @llvm.lifetime.end.p0(i64 16, ptr nonnull %8) #8
  %indvars.iv.next82 = add nuw nsw i64 %indvars.iv81, 8
  %.not66 = icmp samesign ugt i64 %indvars.iv.next82, %23
  %indvars.iv.next84 = add nuw nsw i64 %indvars.iv83, 8
  br i1 %.not66, label %._crit_edge, label %27, !llvm.loop !20

._crit_edge:                                      ; preds = %69
  %indvars.iv.next89 = add nuw nsw i64 %indvars.iv88, 1
  %exitcond91.not = icmp eq i64 %indvars.iv.next89, %wide.trip.count
  br i1 %exitcond91.not, label %._crit_edge78, label %.lr.ph, !llvm.loop !21

._crit_edge78:                                    ; preds = %._crit_edge, %.lr.ph77, %7
  %70 = and i32 %2, 7
  %.not = icmp eq i32 %70, 0
  br i1 %.not, label %77, label %71

71:                                               ; preds = %._crit_edge78
  %72 = sext i32 %2 to i64
  %73 = getelementptr inbounds i32, ptr %0, i64 %72
  %74 = zext nneg i32 %70 to i64
  %75 = sub nsw i64 0, %74
  %76 = getelementptr inbounds i32, ptr %73, i64 %75
  tail call void @VP8LCollectColorBlueTransforms_C(ptr noundef nonnull %76, i32 noundef %1, i32 noundef %70, i32 noundef %3, i32 noundef %4, i32 noundef %5, ptr noundef %6) #8
  br label %77

77:                                               ; preds = %71, %._crit_edge78
  ret void
}